(dp0
S'six'
p1
(F0.16666666666666666
I1
tp2
sS'three'
p3
(F0.16666666666666666
I-5
tp4
sS'two'
p5
(F0.16666666666666666
I5
tp6
sS'four'
p7
(F0.16666666666666666
I1
tp8
sS'five'
p9
(F0.16666666666666666
I-5
tp10
sS'one'
p11
(F0.16666666666666666
I-1
tp12
s.